target datalayout = "e-m:e-p270:32:32-p271:32:32-p272:64:64-i64:64-i128:128-f80:128-n8:16:32:64-S128"
target triple = "x86_64-pc-linux-gnu"

%struct.lxb_html_tokenizer = type { ptr, ptr, ptr, ptr, ptr, ptr, ptr, ptr, ptr, ptr, ptr, ptr, ptr, ptr, ptr, i64, ptr, ptr, ptr, ptr, ptr, i64, i64, ptr, ptr, i64, i64, i32, i32, i8, i32, i32, i8, ptr, i64 }
%struct.lxb_html_token_t = type { ptr, ptr, i64, i64, ptr, ptr, ptr, ptr, ptr, i64, i64, i32 }

@.str.3 = private unnamed_addr constant [8 x i8] c"doctype\00", align 1
@.str.4 = private unnamed_addr constant [8 x i8] c"[CDATA[\00", align 1

; Function Attrs: nounwind uwtable
define internal ptr @lxb_html_tokenizer_state_markup_declaration_open(ptr noundef %0, ptr noundef %1, ptr noundef %2) #0 {
  %4 = alloca ptr, align 8
  %5 = alloca ptr, align 8
  %6 = alloca ptr, align 8
  %7 = alloca ptr, align 8
  %8 = alloca i64, align 8
  store ptr %0, ptr %5, align 8
  store ptr %1, ptr %6, align 8
  store ptr %2, ptr %7, align 8
  %9 = load ptr, ptr %5, align 8
  %10 = getelementptr inbounds %struct.lxb_html_tokenizer, ptr %9, i32 0, i32 32
  %11 = load i8, ptr %10, align 4
  %12 = trunc i8 %11 to i1
  %13 = zext i1 %12 to i32
  %14 = icmp eq i32 %13, 0
  br i1 %14, label %15, label %42

15:                                               ; preds = %3
  br label %16

16:                                               ; preds = %15
  %17 = load ptr, ptr %5, align 8
  %18 = getelementptr inbounds %struct.lxb_html_tokenizer, ptr %17, i32 0, i32 16
  %19 = load ptr, ptr %18, align 8
  %20 = load ptr, ptr %5, align 8
  %21 = getelementptr inbounds %struct.lxb_html_tokenizer, ptr %20, i32 0, i32 17
  store ptr %19, ptr %21, align 8
  %22 = load ptr, ptr %6, align 8
  %23 = load ptr, ptr %5, align 8
  %24 = getelementptr inbounds %struct.lxb_html_tokenizer, ptr %23, i32 0, i32 8
  %25 = load ptr, ptr %24, align 8
  %26 = getelementptr inbounds %struct.lxb_html_token_t, ptr %25, i32 0, i32 0
  store ptr %22, ptr %26, align 8
  %27 = load ptr, ptr %5, align 8
  %28 = getelementptr inbounds %struct.lxb_html_tokenizer, ptr %27, i32 0, i32 21
  %29 = load i64, ptr %28, align 8
  %30 = load ptr, ptr %5, align 8
  %31 = getelementptr inbounds %struct.lxb_html_tokenizer, ptr %30, i32 0, i32 8
  %32 = load ptr, ptr %31, align 8
  %33 = getelementptr inbounds %struct.lxb_html_token_t, ptr %32, i32 0, i32 2
  store i64 %29, ptr %33, align 8
  %34 = load ptr, ptr %5, align 8
  %35 = getelementptr inbounds %struct.lxb_html_tokenizer, ptr %34, i32 0, i32 22
  %36 = load i64, ptr %35, align 8
  %37 = load ptr, ptr %5, align 8
  %38 = getelementptr inbounds %struct.lxb_html_tokenizer, ptr %37, i32 0, i32 8
  %39 = load ptr, ptr %38, align 8
  %40 = getelementptr inbounds %struct.lxb_html_token_t, ptr %39, i32 0, i32 3
  store i64 %36, ptr %40, align 8
  br label %41

41:                                               ; preds = %16
  br label %42

42:                                               ; preds = %41, %3
  %43 = load ptr, ptr %6, align 8
  %44 = load i8, ptr %43, align 1
  %45 = zext i8 %44 to i32
  %46 = icmp eq i32 %45, 45
  br i1 %46, label %47, label %71

47:                                               ; preds = %42
  %48 = load ptr, ptr %7, align 8
  %49 = load ptr, ptr %6, align 8
  %50 = ptrtoint ptr %48 to i64
  %51 = ptrtoint ptr %49 to i64
  %52 = sub i64 %50, %51
  %53 = icmp slt i64 %52, 2
  br i1 %53, label %54, label %59

54:                                               ; preds = %47
  %55 = load ptr, ptr %5, align 8
  %56 = getelementptr inbounds %struct.lxb_html_tokenizer, ptr %55, i32 0, i32 0
  store ptr @lxb_html_tokenizer_state_markup_declaration_comment, ptr %56, align 8
  %57 = load ptr, ptr %6, align 8
  %58 = getelementptr inbounds i8, ptr %57, i64 1
  store ptr %58, ptr %4, align 8
  br label %202

59:                                               ; preds = %47
  %60 = load ptr, ptr %6, align 8
  %61 = getelementptr inbounds i8, ptr %60, i64 1
  %62 = load i8, ptr %61, align 1
  %63 = zext i8 %62 to i32
  %64 = icmp eq i32 %63, 45
  br i1 %64, label %65, label %70

65:                                               ; preds = %59
  %66 = load ptr, ptr %5, align 8
  %67 = getelementptr inbounds %struct.lxb_html_tokenizer, ptr %66, i32 0, i32 0
  store ptr @lxb_html_tokenizer_state_comment_before_start, ptr %67, align 8
  %68 = load ptr, ptr %6, align 8
  %69 = getelementptr inbounds i8, ptr %68, i64 2
  store ptr %69, ptr %4, align 8
  br label %202

70:                                               ; preds = %59
  br label %171

71:                                               ; preds = %42
  %72 = load ptr, ptr %6, align 8
  %73 = load i8, ptr %72, align 1
  %74 = zext i8 %73 to i32
  %75 = icmp eq i32 %74, 68
  br i1 %75, label %81, label %76

76:                                               ; preds = %71
  %77 = load ptr, ptr %6, align 8
  %78 = load i8, ptr %77, align 1
  %79 = zext i8 %78 to i32
  %80 = icmp eq i32 %79, 100
  br i1 %80, label %81, label %103

81:                                               ; preds = %76, %71
  %82 = load ptr, ptr %7, align 8
  %83 = load ptr, ptr %6, align 8
  %84 = ptrtoint ptr %82 to i64
  %85 = ptrtoint ptr %83 to i64
  %86 = sub i64 %84, %85
  %87 = icmp slt i64 %86, 7
  br i1 %87, label %88, label %94

88:                                               ; preds = %81
  %89 = load ptr, ptr %5, align 8
  %90 = getelementptr inbounds %struct.lxb_html_tokenizer, ptr %89, i32 0, i32 13
  store ptr @.str.3, ptr %90, align 8
  %91 = load ptr, ptr %5, align 8
  %92 = getelementptr inbounds %struct.lxb_html_tokenizer, ptr %91, i32 0, i32 0
  store ptr @lxb_html_tokenizer_state_markup_declaration_doctype, ptr %92, align 8
  %93 = load ptr, ptr %6, align 8
  store ptr %93, ptr %4, align 8
  br label %202

94:                                               ; preds = %81
  %95 = load ptr, ptr %6, align 8
  %96 = call zeroext i1 @lexbor_str_data_ncasecmp(ptr noundef @.str.3, ptr noundef %95, i64 noundef 7)
  br i1 %96, label %97, label %102

97:                                               ; preds = %94
  %98 = load ptr, ptr %5, align 8
  %99 = getelementptr inbounds %struct.lxb_html_tokenizer, ptr %98, i32 0, i32 0
  store ptr @lxb_html_tokenizer_state_doctype_before, ptr %99, align 8
  %100 = load ptr, ptr %6, align 8
  %101 = getelementptr inbounds i8, ptr %100, i64 7
  store ptr %101, ptr %4, align 8
  br label %202

102:                                              ; preds = %94
  br label %170

103:                                              ; preds = %76
  %104 = load ptr, ptr %6, align 8
  %105 = load i8, ptr %104, align 1
  %106 = zext i8 %105 to i32
  %107 = icmp eq i32 %106, 91
  br i1 %107, label %108, label %169

108:                                              ; preds = %103
  %109 = load ptr, ptr %7, align 8
  %110 = load ptr, ptr %6, align 8
  %111 = ptrtoint ptr %109 to i64
  %112 = ptrtoint ptr %110 to i64
  %113 = sub i64 %111, %112
  %114 = icmp slt i64 %113, 7
  br i1 %114, label %115, label %121

115:                                              ; preds = %108
  %116 = load ptr, ptr %5, align 8
  %117 = getelementptr inbounds %struct.lxb_html_tokenizer, ptr %116, i32 0, i32 13
  store ptr @.str.4, ptr %117, align 8
  %118 = load ptr, ptr %5, align 8
  %119 = getelementptr inbounds %struct.lxb_html_tokenizer, ptr %118, i32 0, i32 0
  store ptr @lxb_html_tokenizer_state_markup_declaration_cdata, ptr %119, align 8
  %120 = load ptr, ptr %6, align 8
  store ptr %120, ptr %4, align 8
  br label %202

121:                                              ; preds = %108
  %122 = load ptr, ptr %6, align 8
  %123 = call zeroext i1 @lexbor_str_data_ncmp(ptr noundef @.str.4, ptr noundef %122, i64 noundef 7)
  br i1 %123, label %124, label %168

124:                                              ; preds = %121
  %125 = load ptr, ptr %5, align 8
  %126 = call i64 @lxb_html_tokenizer_current_namespace(ptr noundef %125)
  store i64 %126, ptr %8, align 8
  %127 = load i64, ptr %8, align 8
  %128 = icmp ne i64 %127, 2
  br i1 %128, label %129, label %164

129:                                              ; preds = %124
  %130 = load i64, ptr %8, align 8
  %131 = icmp ne i64 %130, 0
  br i1 %131, label %132, label %164

132:                                              ; preds = %129
  %133 = load ptr, ptr %6, align 8
  %134 = getelementptr inbounds i8, ptr %133, i64 7
  store ptr %134, ptr %6, align 8
  br label %135

135:                                              ; preds = %132
  %136 = load ptr, ptr %5, align 8
  %137 = getelementptr inbounds %struct.lxb_html_tokenizer, ptr %136, i32 0, i32 16
  %138 = load ptr, ptr %137, align 8
  %139 = load ptr, ptr %5, align 8
  %140 = getelementptr inbounds %struct.lxb_html_tokenizer, ptr %139, i32 0, i32 17
  store ptr %138, ptr %140, align 8
  %141 = load ptr, ptr %6, align 8
  %142 = load ptr, ptr %5, align 8
  %143 = getelementptr inbounds %struct.lxb_html_tokenizer, ptr %142, i32 0, i32 8
  %144 = load ptr, ptr %143, align 8
  %145 = getelementptr inbounds %struct.lxb_html_token_t, ptr %144, i32 0, i32 0
  store ptr %141, ptr %145, align 8
  %146 = load ptr, ptr %5, align 8
  %147 = getelementptr inbounds %struct.lxb_html_tokenizer, ptr %146, i32 0, i32 21
  %148 = load i64, ptr %147, align 8
  %149 = load ptr, ptr %5, align 8
  %150 = getelementptr inbounds %struct.lxb_html_tokenizer, ptr %149, i32 0, i32 8
  %151 = load ptr, ptr %150, align 8
  %152 = getelementptr inbounds %struct.lxb_html_token_t, ptr %151, i32 0, i32 2
  store i64 %148, ptr %152, align 8
  %153 = load ptr, ptr %5, align 8
  %154 = getelementptr inbounds %struct.lxb_html_tokenizer, ptr %153, i32 0, i32 22
  %155 = load i64, ptr %154, align 8
  %156 = load ptr, ptr %5, align 8
  %157 = getelementptr inbounds %struct.lxb_html_tokenizer, ptr %156, i32 0, i32 8
  %158 = load ptr, ptr %157, align 8
  %159 = getelementptr inbounds %struct.lxb_html_token_t, ptr %158, i32 0, i32 3
  store i64 %155, ptr %159, align 8
  br label %160

160:                                              ; preds = %135
  %161 = load ptr, ptr %5, align 8
  %162 = getelementptr inbounds %struct.lxb_html_tokenizer, ptr %161, i32 0, i32 0
  store ptr @lxb_html_tokenizer_state_cdata_section_before, ptr %162, align 8
  %163 = load ptr, ptr %6, align 8
  store ptr %163, ptr %4, align 8
  br label %202

164:                                              ; preds = %129, %124
  %165 = load ptr, ptr %5, align 8
  %166 = getelementptr inbounds %struct.lxb_html_tokenizer, ptr %165, i32 0, i32 0
  store ptr @lxb_html_tokenizer_state_bogus_comment_before, ptr %166, align 8
  %167 = load ptr, ptr %6, align 8
  store ptr %167, ptr %4, align 8
  br label %202

168:                                              ; preds = %121
  br label %169

169:                                              ; preds = %168, %103
  br label %170

170:                                              ; preds = %169, %102
  br label %171

171:                                              ; preds = %170, %70
  %172 = load ptr, ptr %5, align 8
  %173 = getelementptr inbounds %struct.lxb_html_tokenizer, ptr %172, i32 0, i32 32
  %174 = load i8, ptr %173, align 4
  %175 = trunc i8 %174 to i1
  br i1 %175, label %176, label %193

176:                                              ; preds = %171
  %177 = load ptr, ptr %5, align 8
  %178 = getelementptr inbounds %struct.lxb_html_tokenizer, ptr %177, i32 0, i32 20
  %179 = load ptr, ptr %178, align 8
  %180 = load ptr, ptr %5, align 8
  %181 = getelementptr inbounds %struct.lxb_html_tokenizer, ptr %180, i32 0, i32 8
  %182 = load ptr, ptr %181, align 8
  %183 = getelementptr inbounds %struct.lxb_html_token_t, ptr %182, i32 0, i32 1
  store ptr %179, ptr %183, align 8
  %184 = load ptr, ptr %5, align 8
  %185 = getelementptr inbounds %struct.lxb_html_tokenizer, ptr %184, i32 0, i32 8
  %186 = load ptr, ptr %185, align 8
  %187 = getelementptr inbounds %struct.lxb_html_token_t, ptr %186, i32 0, i32 1
  %188 = load ptr, ptr %187, align 8
  %189 = load ptr, ptr %5, align 8
  %190 = getelementptr inbounds %struct.lxb_html_tokenizer, ptr %189, i32 0, i32 8
  %191 = load ptr, ptr %190, align 8
  %192 = getelementptr inbounds %struct.lxb_html_token_t, ptr %191, i32 0, i32 0
  store ptr %188, ptr %192, align 8
  br label %193

193:                                              ; preds = %176, %171
  %194 = load ptr, ptr %5, align 8
  %195 = getelementptr inbounds %struct.lxb_html_tokenizer, ptr %194, i32 0, i32 11
  %196 = load ptr, ptr %195, align 8
  %197 = load ptr, ptr %6, align 8
  %198 = call ptr @lxb_html_tokenizer_error_add(ptr noundef %196, ptr noundef %197, i32 noundef 18)
  %199 = load ptr, ptr %5, align 8
  %200 = getelementptr inbounds %struct.lxb_html_tokenizer, ptr %199, i32 0, i32 0
  store ptr @lxb_html_tokenizer_state_bogus_comment_before, ptr %200, align 8
  %201 = load ptr, ptr %6, align 8
  store ptr %201, ptr %4, align 8
  br label %202

202:                                              ; preds = %193, %164, %160, %115, %97, %88, %65, %54
  %203 = load ptr, ptr %4, align 8
  ret ptr %203
}