; Function Attrs: nounwind uwtable
define internal ptr @lxb_html_tokenizer_state_markup_declaration_open(ptr noundef %0, ptr noundef %1, ptr noundef %2) #1 {
  %4 = getelementptr inbounds i8, ptr %0, i64 236
  %5 = load i8, ptr %4, align 4
  %6 = and i8 %5, 1
  %7 = icmp eq i8 %6, 0
  br i1 %7, label %8, label %22

8:                                                ; preds = %3
  %9 = getelementptr inbounds i8, ptr %0, i64 128
  %10 = load ptr, ptr %9, align 8
  %11 = getelementptr inbounds i8, ptr %0, i64 136
  store ptr %10, ptr %11, align 8
  %12 = getelementptr inbounds i8, ptr %0, i64 64
  %13 = load ptr, ptr %12, align 8
  store ptr %1, ptr %13, align 8
  %14 = getelementptr inbounds i8, ptr %0, i64 168
  %15 = load i64, ptr %14, align 8
  %16 = load ptr, ptr %12, align 8
  %17 = getelementptr inbounds i8, ptr %16, i64 16
  store i64 %15, ptr %17, align 8
  %18 = getelementptr inbounds i8, ptr %0, i64 176
  %19 = load i64, ptr %18, align 8
  %20 = load ptr, ptr %12, align 8
  %21 = getelementptr inbounds i8, ptr %20, i64 24
  store i64 %19, ptr %21, align 8
  br label %22

22:                                               ; preds = %8, %3
  %23 = load i8, ptr %1, align 1
  switch i8 %23, label %76 [
    i8 45, label %24
    i8 68, label %37
    i8 100, label %37
    i8 91, label %48
  ]

24:                                               ; preds = %22
  %25 = ptrtoint ptr %2 to i64
  %26 = ptrtoint ptr %1 to i64
  %27 = sub i64 %25, %26
  %28 = icmp slt i64 %27, 2
  br i1 %28, label %29, label %31

29:                                               ; preds = %24
  store ptr @lxb_html_tokenizer_state_markup_declaration_comment, ptr %0, align 8
  %30 = getelementptr inbounds i8, ptr %1, i64 1
  br label %92

31:                                               ; preds = %24
  %32 = getelementptr inbounds i8, ptr %1, i64 1
  %33 = load i8, ptr %32, align 1
  %34 = icmp eq i8 %33, 45
  br i1 %34, label %35, label %76

35:                                               ; preds = %31
  store ptr @lxb_html_tokenizer_state_comment_before_start, ptr %0, align 8
  %36 = getelementptr inbounds i8, ptr %1, i64 2
  br label %92

37:                                               ; preds = %22, %22
  %38 = ptrtoint ptr %2 to i64
  %39 = ptrtoint ptr %1 to i64
  %40 = sub i64 %38, %39
  %41 = icmp slt i64 %40, 7
  br i1 %41, label %42, label %44

42:                                               ; preds = %37
  %43 = getelementptr inbounds i8, ptr %0, i64 104
  store ptr @.str.3, ptr %43, align 8
  store ptr @lxb_html_tokenizer_state_markup_declaration_doctype, ptr %0, align 8
  br label %92

44:                                               ; preds = %37
  %45 = tail call zeroext i1 @lexbor_str_data_ncasecmp(ptr noundef nonnull @.str.3, ptr noundef nonnull %1, i64 noundef 7) #5
  br i1 %45, label %46, label %76

46:                                               ; preds = %44
  store ptr @lxb_html_tokenizer_state_doctype_before, ptr %0, align 8
  %47 = getelementptr inbounds i8, ptr %1, i64 7
  br label %92

48:                                               ; preds = %22
  %49 = ptrtoint ptr %2 to i64
  %50 = ptrtoint ptr %1 to i64
  %51 = sub i64 %49, %50
  %52 = icmp slt i64 %51, 7
  br i1 %52, label %53, label %55

53:                                               ; preds = %48
  %54 = getelementptr inbounds i8, ptr %0, i64 104
  store ptr @.str.4, ptr %54, align 8
  store ptr @lxb_html_tokenizer_state_markup_declaration_cdata, ptr %0, align 8
  br label %92

55:                                               ; preds = %48
  %56 = tail call zeroext i1 @lexbor_str_data_ncmp(ptr noundef nonnull @.str.4, ptr noundef nonnull %1, i64 noundef 7) #5
  br i1 %56, label %57, label %76

57:                                               ; preds = %55
  %58 = tail call i64 @lxb_html_tokenizer_current_namespace(ptr noundef nonnull %0) #5
  %59 = and i64 %58, -3
  %or.cond.not = icmp eq i64 %59, 0
  br i1 %or.cond.not, label %75, label %60

60:                                               ; preds = %57
  %61 = getelementptr inbounds i8, ptr %1, i64 7
  %62 = getelementptr inbounds i8, ptr %0, i64 128
  %63 = load ptr, ptr %62, align 8
  %64 = getelementptr inbounds i8, ptr %0, i64 136
  store ptr %63, ptr %64, align 8
  %65 = getelementptr inbounds i8, ptr %0, i64 64
  %66 = load ptr, ptr %65, align 8
  store ptr %61, ptr %66, align 8
  %67 = getelementptr inbounds i8, ptr %0, i64 168
  %68 = load i64, ptr %67, align 8
  %69 = load ptr, ptr %65, align 8
  %70 = getelementptr inbounds i8, ptr %69, i64 16
  store i64 %68, ptr %70, align 8
  %71 = getelementptr inbounds i8, ptr %0, i64 176
  %72 = load i64, ptr %71, align 8
  %73 = load ptr, ptr %65, align 8
  %74 = getelementptr inbounds i8, ptr %73, i64 24
  store i64 %72, ptr %74, align 8
  store ptr @lxb_html_tokenizer_state_cdata_section_before, ptr %0, align 8
  br label %92

75:                                               ; preds = %57
  store ptr @lxb_html_tokenizer_state_bogus_comment_before, ptr %0, align 8
  br label %92

76:                                               ; preds = %22, %44, %55, %31
  %77 = load i8, ptr %4, align 4
  %78 = and i8 %77, 1
  %.not = icmp eq i8 %78, 0
  br i1 %.not, label %88, label %79

79:                                               ; preds = %76
  %80 = getelementptr inbounds i8, ptr %0, i64 160
  %81 = load ptr, ptr %80, align 8
  %82 = getelementptr inbounds i8, ptr %0, i64 64
  %83 = load ptr, ptr %82, align 8
  %84 = getelementptr inbounds i8, ptr %83, i64 8
  store ptr %81, ptr %84, align 8
  %85 = load ptr, ptr %82, align 8
  %86 = getelementptr inbounds i8, ptr %85, i64 8
  %87 = load ptr, ptr %86, align 8
  store ptr %87, ptr %85, align 8
  br label %88

88:                                               ; preds = %79, %76
  %89 = getelementptr inbounds i8, ptr %0, i64 88
  %90 = load ptr, ptr %89, align 8
  %91 = tail call ptr @lxb_html_tokenizer_error_add(ptr noundef %90, ptr noundef nonnull %1, i32 noundef 18) #5
  store ptr @lxb_html_tokenizer_state_bogus_comment_before, ptr %0, align 8
  br label %92

92:                                               ; preds = %88, %75, %60, %53, %46, %42, %35, %29
  %.0 = phi ptr [ %30, %29 ], [ %36, %35 ], [ %1, %88 ], [ %1, %42 ], [ %47, %46 ], [ %1, %53 ], [ %61, %60 ], [ %1, %75 ]
  ret ptr %.0
}